target datalayout = "e-m:e-p270:32:32-p271:32:32-p272:64:64-i64:64-i128:128-f80:128-n8:16:32:64-S128"
target triple = "x86_64-pc-linux-gnu"

%struct.testVector = type { ptr, ptr, i64, i64 }
%struct.wc_Sha256 = type { [8 x i32], [16 x i32], i32, i32, i32, ptr, [8 x i8] }

@.str.24 = private unnamed_addr constant [4 x i8] c"abc\00", align 1
@.str.35 = private unnamed_addr constant [57 x i8] c"abcdbcdecdefdefgefghfghighijhijkijkljklmklmnlmnomnopnopq\00", align 1
@.str.41 = private unnamed_addr constant [29 x i8] c"#\09}\224\05\D8\22\86B\A4w\BD\A2U\B3*\AD\BC\E4\BD\A0\B3\F7\E3l\9D\A7\00", align 1
@.str.42 = private unnamed_addr constant [29 x i8] c"u8\8B\16Q'v\CC]\BA]\A1\FD\89\01P\B0\C6E\\\B4\F5\8B\19RR%%\00", align 1

; Function Attrs: nounwind uwtable
define dso_local i32 @sha224_test() #0 {
  %1 = alloca i32, align 4
  %2 = alloca %struct.wc_Sha256, align 16
  %3 = alloca [28 x i8], align 16
  %4 = alloca %struct.testVector, align 8
  %5 = alloca %struct.testVector, align 8
  %6 = alloca [2 x %struct.testVector], align 16
  %7 = alloca i32, align 4
  %8 = alloca i32, align 4
  %9 = alloca i32, align 4
  %10 = alloca i32, align 4
  call void @llvm.lifetime.start.p0(i64 128, ptr %2) #5
  call void @llvm.lifetime.start.p0(i64 28, ptr %3) #5
  call void @llvm.lifetime.start.p0(i64 32, ptr %4) #5
  call void @llvm.lifetime.start.p0(i64 32, ptr %5) #5
  call void @llvm.lifetime.start.p0(i64 64, ptr %6) #5
  call void @llvm.lifetime.start.p0(i64 4, ptr %7) #5
  call void @llvm.lifetime.start.p0(i64 4, ptr %8) #5
  store i32 2, ptr %8, align 4, !tbaa !4
  call void @llvm.lifetime.start.p0(i64 4, ptr %9) #5
  %11 = getelementptr inbounds nuw %struct.testVector, ptr %4, i32 0, i32 0
  store ptr @.str.24, ptr %11, align 8, !tbaa !8
  %12 = getelementptr inbounds nuw %struct.testVector, ptr %4, i32 0, i32 1
  store ptr @.str.41, ptr %12, align 8, !tbaa !13
  %13 = getelementptr inbounds nuw %struct.testVector, ptr %4, i32 0, i32 0
  %14 = load ptr, ptr %13, align 8, !tbaa !8
  %15 = call i64 @strlen(ptr noundef %14) #6
  %16 = getelementptr inbounds nuw %struct.testVector, ptr %4, i32 0, i32 2
  store i64 %15, ptr %16, align 8, !tbaa !14
  %17 = getelementptr inbounds nuw %struct.testVector, ptr %4, i32 0, i32 3
  store i64 28, ptr %17, align 8, !tbaa !15
  %18 = getelementptr inbounds nuw %struct.testVector, ptr %5, i32 0, i32 0
  store ptr @.str.35, ptr %18, align 8, !tbaa !8
  %19 = getelementptr inbounds nuw %struct.testVector, ptr %5, i32 0, i32 1
  store ptr @.str.42, ptr %19, align 8, !tbaa !13
  %20 = getelementptr inbounds nuw %struct.testVector, ptr %5, i32 0, i32 0
  %21 = load ptr, ptr %20, align 8, !tbaa !8
  %22 = call i64 @strlen(ptr noundef %21) #6
  %23 = getelementptr inbounds nuw %struct.testVector, ptr %5, i32 0, i32 2
  store i64 %22, ptr %23, align 8, !tbaa !14
  %24 = getelementptr inbounds nuw %struct.testVector, ptr %5, i32 0, i32 3
  store i64 28, ptr %24, align 8, !tbaa !15
  %25 = getelementptr inbounds [2 x %struct.testVector], ptr %6, i64 0, i64 0
  call void @llvm.memcpy.p0.p0.i64(ptr align 16 %25, ptr align 8 %4, i64 32, i1 false), !tbaa.struct !16
  %26 = getelementptr inbounds [2 x %struct.testVector], ptr %6, i64 0, i64 1
  call void @llvm.memcpy.p0.p0.i64(ptr align 16 %26, ptr align 8 %5, i64 32, i1 false), !tbaa.struct !16
  %27 = call i32 @wc_InitSha224(ptr noundef %2)
  store i32 %27, ptr %7, align 4, !tbaa !4
  %28 = load i32, ptr %7, align 4, !tbaa !4
  %29 = icmp ne i32 %28, 0
  br i1 %29, label %30, label %31

30:                                               ; preds = %0
  store i32 -4005, ptr %1, align 4
  store i32 1, ptr %10, align 4
  br label %77

31:                                               ; preds = %0
  store i32 0, ptr %9, align 4, !tbaa !4
  br label %32

32:                                               ; preds = %73, %31
  %33 = load i32, ptr %9, align 4, !tbaa !4
  %34 = load i32, ptr %8, align 4, !tbaa !4
  %35 = icmp slt i32 %33, %34
  br i1 %35, label %36, label %76

36:                                               ; preds = %32
  %37 = load i32, ptr %9, align 4, !tbaa !4
  %38 = sext i32 %37 to i64
  %39 = getelementptr inbounds [2 x %struct.testVector], ptr %6, i64 0, i64 %38
  %40 = getelementptr inbounds nuw %struct.testVector, ptr %39, i32 0, i32 0
  %41 = load ptr, ptr %40, align 16, !tbaa !8
  %42 = load i32, ptr %9, align 4, !tbaa !4
  %43 = sext i32 %42 to i64
  %44 = getelementptr inbounds [2 x %struct.testVector], ptr %6, i64 0, i64 %43
  %45 = getelementptr inbounds nuw %struct.testVector, ptr %44, i32 0, i32 2
  %46 = load i64, ptr %45, align 16, !tbaa !14
  %47 = trunc i64 %46 to i32
  %48 = call i32 @wc_Sha224Update(ptr noundef %2, ptr noundef %41, i32 noundef %47)
  store i32 %48, ptr %7, align 4, !tbaa !4
  %49 = load i32, ptr %7, align 4, !tbaa !4
  %50 = icmp ne i32 %49, 0
  br i1 %50, label %51, label %53

51:                                               ; preds = %36
  %52 = load i32, ptr %7, align 4, !tbaa !4
  store i32 %52, ptr %1, align 4
  store i32 1, ptr %10, align 4
  br label %77

53:                                               ; preds = %36
  %54 = getelementptr inbounds [28 x i8], ptr %3, i64 0, i64 0
  %55 = call i32 @wc_Sha224Final(ptr noundef %2, ptr noundef %54)
  store i32 %55, ptr %7, align 4, !tbaa !4
  %56 = load i32, ptr %7, align 4, !tbaa !4
  %57 = icmp ne i32 %56, 0
  br i1 %57, label %58, label %60

58:                                               ; preds = %53
  %59 = load i32, ptr %7, align 4, !tbaa !4
  store i32 %59, ptr %1, align 4
  store i32 1, ptr %10, align 4
  br label %77

60:                                               ; preds = %53
  %61 = getelementptr inbounds [28 x i8], ptr %3, i64 0, i64 0
  %62 = load i32, ptr %9, align 4, !tbaa !4
  %63 = sext i32 %62 to i64
  %64 = getelementptr inbounds [2 x %struct.testVector], ptr %6, i64 0, i64 %63
  %65 = getelementptr inbounds nuw %struct.testVector, ptr %64, i32 0, i32 1
  %66 = load ptr, ptr %65, align 8, !tbaa !13
  %67 = call i32 @memcmp(ptr noundef %61, ptr noundef %66, i64 noundef 28) #6
  %68 = icmp ne i32 %67, 0
  br i1 %68, label %69, label %72

69:                                               ; preds = %60
  %70 = load i32, ptr %9, align 4, !tbaa !4
  %71 = sub nsw i32 -10, %70
  store i32 %71, ptr %1, align 4
  store i32 1, ptr %10, align 4
  br label %77

72:                                               ; preds = %60
  br label %73

73:                                               ; preds = %72
  %74 = load i32, ptr %9, align 4, !tbaa !4
  %75 = add nsw i32 %74, 1
  store i32 %75, ptr %9, align 4, !tbaa !4
  br label %32, !llvm.loop !22

76:                                               ; preds = %32
  call void @wc_Sha224Free(ptr noundef %2)
  store i32 0, ptr %1, align 4
  store i32 1, ptr %10, align 4
  br label %77

77:                                               ; preds = %76, %69, %58, %51, %30
  call void @llvm.lifetime.end.p0(i64 4, ptr %9) #5
  call void @llvm.lifetime.end.p0(i64 4, ptr %8) #5
  call void @llvm.lifetime.end.p0(i64 4, ptr %7) #5
  call void @llvm.lifetime.end.p0(i64 64, ptr %6) #5
  call void @llvm.lifetime.end.p0(i64 32, ptr %5) #5
  call void @llvm.lifetime.end.p0(i64 32, ptr %4) #5
  call void @llvm.lifetime.end.p0(i64 28, ptr %3) #5
  call void @llvm.lifetime.end.p0(i64 128, ptr %2) #5
  %78 = load i32, ptr %1, align 4
  ret i32 %78
}